; Function Attrs: mustprogress nofree nounwind memory(write, argmem: readwrite) uwtable
define hidden void @_ZNK19OpenColorIO_v2_5dev24Renderer_ACES_Glow03_Inv5applyEPKvPvl(ptr noundef nonnull readonly align 8 captures(none) dereferenceable(16) %0, ptr noundef readonly captures(none) %1, ptr noundef writeonly captures(none) %2, i64 noundef %3) unnamed_addr #5 align 2 {
  %5 = icmp sgt i64 %3, 0
  br i1 %5, label %.lr.ph, label %._crit_edge

.lr.ph:                                           ; preds = %4
  %6 = getelementptr inbounds nuw i8, ptr %0, i64 8
  %7 = getelementptr inbounds nuw i8, ptr %0, i64 12
  br label %8

._crit_edge:                                      ; preds = %66, %4
  ret void

8:                                                ; preds = %.lr.ph, %66
  %.048 = phi ptr [ %1, %.lr.ph ], [ %76, %66 ]
  %.04247 = phi ptr [ %2, %.lr.ph ], [ %77, %66 ]
  %.04346 = phi i64 [ 0, %.lr.ph ], [ %78, %66 ]
  %9 = load float, ptr %.048, align 4, !tbaa !13
  %10 = getelementptr inbounds nuw i8, ptr %.048, i64 4
  %11 = load float, ptr %10, align 4, !tbaa !13
  %12 = getelementptr inbounds nuw i8, ptr %.048, i64 8
  %13 = load float, ptr %12, align 4, !tbaa !13
  %14 = fsub float %13, %11
  %15 = fsub float %11, %9
  %16 = fmul float %11, %15
  %17 = tail call float @llvm.fmuladd.f32(float %13, float %14, float %16)
  %18 = fsub float %9, %13
  %19 = tail call float @llvm.fmuladd.f32(float %9, float %18, float %17)
  %20 = tail call noundef float @sqrtf(float noundef %19) #28, !tbaa !14
  %21 = fadd float %11, %13
  %22 = fadd float %9, %21
  %23 = tail call float @llvm.fmuladd.f32(float %20, float 1.750000e+00, float %22)
  %24 = fdiv float %23, 3.000000e+00
  %25 = fcmp olt float %13, %11
  %26 = select i1 %25, float %13, float %11
  %27 = fcmp olt float %26, %9
  %.sroa.speculated26.i = select i1 %27, float %26, float %9
  %28 = fcmp olt float %11, %13
  %29 = select i1 %28, float %13, float %11
  %30 = fcmp olt float %9, %29
  %.sroa.speculated23.i = select i1 %30, float %29, float %9
  %31 = fcmp ogt float %.sroa.speculated23.i, 0x3DDB7CDFE0000000
  %.sroa.speculated8.i = select i1 %31, float %.sroa.speculated23.i, float 0x3DDB7CDFE0000000
  %32 = fcmp ogt float %.sroa.speculated26.i, 0x3DDB7CDFE0000000
  %.sroa.speculated.i = select i1 %32, float %.sroa.speculated26.i, float 0x3DDB7CDFE0000000
  %33 = fsub float %.sroa.speculated8.i, %.sroa.speculated.i
  %34 = fcmp ogt float %.sroa.speculated23.i, 0x3F847AE140000000
  %.sroa.speculated13.i = select i1 %34, float %.sroa.speculated23.i, float 0x3F847AE140000000
  %35 = fdiv float %33, %.sroa.speculated13.i
  %36 = fadd float %35, 0xBFD99999A0000000
  %37 = fmul float %36, 5.000000e+00
  %38 = tail call float @llvm.copysign.f32(float 1.000000e+00, float %37)
  %39 = fmul float %38, -5.000000e-01
  %40 = tail call float @llvm.fmuladd.f32(float %39, float %37, float 1.000000e+00)
  %41 = fcmp ogt float %40, 0.000000e+00
  %.sroa.speculated.i45 = select i1 %41, float %40, float 0.000000e+00
  %42 = fneg float %.sroa.speculated.i45
  %43 = tail call float @llvm.fmuladd.f32(float %42, float %.sroa.speculated.i45, float 1.000000e+00)
  %44 = tail call float @llvm.fmuladd.f32(float %38, float %43, float 1.000000e+00)
  %45 = fmul float %44, 5.000000e-01
  %46 = load float, ptr %6, align 8, !tbaa !25
  %47 = fmul float %46, %45
  %48 = load float, ptr %7, align 4, !tbaa !27
  %49 = fmul float %48, 2.000000e+00
  %50 = fcmp ult float %24, %49
  br i1 %50, label %51, label %66

51:                                               ; preds = %8
  %52 = fadd float %47, 1.000000e+00
  %53 = fmul float %48, %52
  %54 = fmul float %53, 2.000000e+00
  %55 = fdiv float %54, 3.000000e+00
  %56 = fcmp ugt float %24, %55
  br i1 %56, label %60, label %57

57:                                               ; preds = %51
  %58 = fneg float %47
  %59 = fdiv float %58, %52
  br label %66

60:                                               ; preds = %51
  %61 = fdiv float %48, %24
  %62 = fadd float %61, -5.000000e-01
  %63 = fmul float %62, %47
  %64 = tail call float @llvm.fmuladd.f32(float %47, float 5.000000e-01, float -1.000000e+00)
  %65 = fdiv float %63, %64
  br label %66

66:                                               ; preds = %8, %57, %60
  %.041 = phi float [ %59, %57 ], [ %65, %60 ], [ 0.000000e+00, %8 ]
  %67 = fadd float %.041, 1.000000e+00
  %68 = fmul float %9, %67
  store float %68, ptr %.04247, align 4, !tbaa !13
  %69 = fmul float %11, %67
  %70 = getelementptr inbounds nuw i8, ptr %.04247, i64 4
  store float %69, ptr %70, align 4, !tbaa !13
  %71 = fmul float %13, %67
  %72 = getelementptr inbounds nuw i8, ptr %.04247, i64 8
  store float %71, ptr %72, align 4, !tbaa !13
  %73 = getelementptr inbounds nuw i8, ptr %.048, i64 12
  %74 = load float, ptr %73, align 4, !tbaa !13
  %75 = getelementptr inbounds nuw i8, ptr %.04247, i64 12
  store float %74, ptr %75, align 4, !tbaa !13
  %76 = getelementptr inbounds nuw i8, ptr %.048, i64 16
  %77 = getelementptr inbounds nuw i8, ptr %.04247, i64 16
  %78 = add nuw nsw i64 %.04346, 1
  %exitcond.not = icmp eq i64 %78, %3
  br i1 %exitcond.not, label %._crit_edge, label %8, !llvm.loop !29
}